; Function Attrs: mustprogress nounwind uwtable
define internal fastcc void @_ZL10log_adjustPKcP6MethodS2_Pb(ptr noundef %0, ptr nocapture noundef readonly %1, ptr noundef %2, ptr nocapture noundef %3) unnamed_addr #0 {
  %5 = tail call align 8 ptr @llvm.threadlocal.address.p0(ptr align 8 @_ZN6Thread12_thr_currentE)
  %6 = load ptr, ptr %5, align 8
  %7 = getelementptr inbounds i8, ptr %6, i64 800
  %8 = load ptr, ptr %7, align 8
  %9 = getelementptr inbounds i8, ptr %8, i64 24
  %10 = load ptr, ptr %9, align 8
  %11 = getelementptr inbounds i8, ptr %8, i64 32
  %12 = load ptr, ptr %11, align 8
  %13 = getelementptr inbounds i8, ptr %8, i64 40
  %14 = load ptr, ptr %13, align 8
  %15 = getelementptr inbounds i8, ptr %8, i64 8
  %16 = load i64, ptr %15, align 8
  %17 = load i8, ptr %3, align 1
  %18 = trunc i8 %17 to i1
  br i1 %18, label %30, label %19

19:                                               ; preds = %4
  %20 = load volatile ptr, ptr getelementptr inbounds (i8, ptr @_ZN16LogTagSetMappingILN6LogTag4typeE125ELS1_16ELS1_168ELS1_0ELS1_0ELS1_0EE7_tagsetE, i64 64), align 8
  %.not = icmp eq ptr %20, null
  br i1 %.not, label %29, label %21

21:                                               ; preds = %19
  %22 = getelementptr inbounds i8, ptr %1, i64 8
  %23 = load ptr, ptr %22, align 8
  %24 = getelementptr inbounds i8, ptr %23, i64 8
  %25 = load ptr, ptr %24, align 8
  %26 = getelementptr inbounds i8, ptr %25, i64 24
  %27 = load ptr, ptr %26, align 8
  %28 = tail call noundef ptr @_ZNK5Klass13external_nameEv(ptr noundef nonnull align 8 dereferenceable(196) %27) #12
  tail call void (ptr, ...) @_ZN7LogImplILN6LogTag4typeE125ELS1_16ELS1_168ELS1_0ELS1_0ELS1_0EE5writeILN8LogLevel4typeE3EEEvPKcz(ptr noundef nonnull @.str.41, ptr noundef %28)
  br label %29

29:                                               ; preds = %19, %21
  store i8 1, ptr %3, align 1
  br label %30

30:                                               ; preds = %29, %4
  %31 = load volatile ptr, ptr getelementptr inbounds (i8, ptr @_ZN16LogTagSetMappingILN6LogTag4typeE125ELS1_16ELS1_168ELS1_23ELS1_0ELS1_0EE7_tagsetE, i64 48), align 8
  %.not8 = icmp eq ptr %31, null
  br i1 %.not8, label %34, label %32

32:                                               ; preds = %30
  %33 = tail call noundef ptr @_ZNK6Method13external_nameEv(ptr noundef nonnull align 8 dereferenceable(88) %2) #12
  tail call void (ptr, ...) @_ZN7LogImplILN6LogTag4typeE125ELS1_16ELS1_168ELS1_23ELS1_0ELS1_0EE5writeILN8LogLevel4typeE1EEEvPKcz(ptr noundef nonnull @.str.42, ptr noundef %0, ptr noundef %33)
  br label %34

34:                                               ; preds = %30, %32
  %35 = load ptr, ptr %10, align 8
  %.not.i.i.i.i = icmp eq ptr %35, null
  br i1 %.not.i.i.i.i, label %37, label %36

36:                                               ; preds = %34
  tail call void @_ZN5Arena17set_size_in_bytesEm(ptr noundef nonnull align 8 dereferenceable(48) %8, i64 noundef %16) #12
  tail call void @_ZN5Chunk9next_chopEPS_(ptr noundef nonnull %10) #12
  br label %37

37:                                               ; preds = %36, %34
  %38 = load ptr, ptr %11, align 8
  %.not8.i.i.i.i = icmp eq ptr %38, %12
  br i1 %.not8.i.i.i.i, label %_ZN12ResourceMarkD2Ev.exit, label %39

39:                                               ; preds = %37
  store ptr %10, ptr %9, align 8
  store ptr %12, ptr %11, align 8
  store ptr %14, ptr %13, align 8
  br label %_ZN12ResourceMarkD2Ev.exit

_ZN12ResourceMarkD2Ev.exit:                       ; preds = %37, %39
  ret void
}